target datalayout = "e-m:e-p270:32:32-p271:32:32-p272:64:64-i64:64-i128:128-f80:128-n8:16:32:64-S128"
target triple = "x86_64-unknown-linux-gnu"

%"class.v8::Local" = type { %"class.v8::LocalBase" }
%"class.v8::LocalBase" = type { %"class.v8::IndirectHandleBase" }
%"class.v8::IndirectHandleBase" = type { ptr }
%"class.v8::Local.14" = type { %"class.v8::LocalBase.15" }
%"class.v8::LocalBase.15" = type { %"class.v8::IndirectHandleBase" }
%"class.v8::Local.294" = type { %"class.v8::LocalBase.295" }
%"class.v8::LocalBase.295" = type { %"class.v8::IndirectHandleBase" }
%"class.std::vector.280" = type { %"struct.std::_Vector_base.281" }
%"struct.std::_Vector_base.281" = type { %"struct.std::_Vector_base<node::BaseObjectPtrImpl<node::BaseObject, false>, std::allocator<node::BaseObjectPtrImpl<node::BaseObject, false>>>::_Vector_impl" }
%"struct.std::_Vector_base<node::BaseObjectPtrImpl<node::BaseObject, false>, std::allocator<node::BaseObjectPtrImpl<node::BaseObject, false>>>::_Vector_impl" = type { %"struct.std::_Vector_base<node::BaseObjectPtrImpl<node::BaseObject, false>, std::allocator<node::BaseObjectPtrImpl<node::BaseObject, false>>>::_Vector_impl_data" }
%"struct.std::_Vector_base<node::BaseObjectPtrImpl<node::BaseObject, false>, std::allocator<node::BaseObjectPtrImpl<node::BaseObject, false>>>::_Vector_impl_data" = type { ptr, ptr, ptr }
%"class.node::worker::(anonymous namespace)::SerializerDelegate" = type { %"class.v8::ValueSerializer::Delegate", ptr, ptr, %"class.v8::Local", ptr, %"class.std::vector.315", %"class.std::vector.280", i64 }
%"class.v8::ValueSerializer::Delegate" = type { ptr }
%"class.std::vector.315" = type { %"struct.std::_Vector_base.316" }
%"struct.std::_Vector_base.316" = type { %"struct.std::_Vector_base<v8::Global<v8::SharedArrayBuffer>, std::allocator<v8::Global<v8::SharedArrayBuffer>>>::_Vector_impl" }
%"struct.std::_Vector_base<v8::Global<v8::SharedArrayBuffer>, std::allocator<v8::Global<v8::SharedArrayBuffer>>>::_Vector_impl" = type { %"struct.std::_Vector_base<v8::Global<v8::SharedArrayBuffer>, std::allocator<v8::Global<v8::SharedArrayBuffer>>>::_Vector_impl_data" }
%"struct.std::_Vector_base<v8::Global<v8::SharedArrayBuffer>, std::allocator<v8::Global<v8::SharedArrayBuffer>>>::_Vector_impl_data" = type { ptr, ptr, ptr }
%"class.v8::Local.325" = type { %"class.v8::LocalBase.326" }
%"class.v8::LocalBase.326" = type { %"class.v8::IndirectHandleBase" }
%"class.v8::Local.386" = type { %"class.v8::LocalBase.387" }
%"class.v8::LocalBase.387" = type { %"class.v8::IndirectHandleBase" }
%"class.v8::MaybeLocal.388" = type { %"class.v8::Local.386" }
%"class.v8::MaybeLocal.389" = type { %"class.v8::Local.294" }
%"class.v8::MaybeLocal.503" = type { %"class.v8::Local.325" }

@.str.81 = private unnamed_addr constant [15 x i8] c"DataCloneError\00", align 1

; Function Attrs: mustprogress nounwind uwtable
define linkonce_odr dso_local ptr @_ZN4node13OneByteStringEPN2v87IsolateEPKci(ptr noundef %isolate, ptr noundef %data, i32 noundef %length) #4 comdat {
entry:
  %this.addr.i.i = alloca ptr, align 8
  %this.addr.i11 = alloca ptr, align 8
  %retval.i = alloca %"class.v8::Local.325", align 8
  %this.addr.i = alloca ptr, align 8
  %retval = alloca %"class.v8::Local.325", align 8
  %isolate.addr = alloca ptr, align 8
  %data.addr = alloca ptr, align 8
  %length.addr = alloca i32, align 4
  %ref.tmp = alloca %"class.v8::MaybeLocal.503", align 8
  store ptr %isolate, ptr %isolate.addr, align 8
  store ptr %data, ptr %data.addr, align 8
  store i32 %length, ptr %length.addr, align 4
  %0 = load ptr, ptr %isolate.addr, align 8
  %1 = load ptr, ptr %data.addr, align 8
  %2 = load i32, ptr %length.addr, align 4
  %call = call ptr @_ZN2v86String14NewFromOneByteEPNS_7IsolateEPKhNS_13NewStringTypeEi(ptr noundef %0, ptr noundef %1, i32 noundef 0, i32 noundef %2)
  %coerce.dive = getelementptr inbounds %"class.v8::MaybeLocal.503", ptr %ref.tmp, i32 0, i32 0
  %coerce.dive1 = getelementptr inbounds %"class.v8::Local.325", ptr %coerce.dive, i32 0, i32 0
  %coerce.dive2 = getelementptr inbounds %"class.v8::LocalBase.326", ptr %coerce.dive1, i32 0, i32 0
  %coerce.dive3 = getelementptr inbounds %"class.v8::IndirectHandleBase", ptr %coerce.dive2, i32 0, i32 0
  store ptr %call, ptr %coerce.dive3, align 8
  store ptr %ref.tmp, ptr %this.addr.i, align 8
  %this1.i = load ptr, ptr %this.addr.i, align 8
  store ptr %this1.i, ptr %this.addr.i11, align 8
  %this1.i12 = load ptr, ptr %this.addr.i11, align 8
  store ptr %this1.i12, ptr %this.addr.i.i, align 8
  %this1.i.i = load ptr, ptr %this.addr.i.i, align 8
  %3 = load ptr, ptr %this1.i.i, align 8
  %cmp.i.i = icmp eq ptr %3, null
  br i1 %cmp.i.i, label %if.then.i, label %_ZN2v810MaybeLocalINS_6StringEE14ToLocalCheckedEv.exit

if.then.i:                                        ; preds = %entry
  call void @_ZN2v812api_internal12ToLocalEmptyEv() #3
  br label %_ZN2v810MaybeLocalINS_6StringEE14ToLocalCheckedEv.exit

_ZN2v810MaybeLocalINS_6StringEE14ToLocalCheckedEv.exit: ; preds = %if.then.i, %entry
  call void @llvm.memcpy.p0.p0.i64(ptr align 8 %retval.i, ptr align 8 %this1.i, i64 8, i1 false)
  %4 = load ptr, ptr %retval.i, align 8
  %coerce.dive5 = getelementptr inbounds %"class.v8::Local.325", ptr %retval, i32 0, i32 0
  %coerce.dive6 = getelementptr inbounds %"class.v8::LocalBase.326", ptr %coerce.dive5, i32 0, i32 0
  %coerce.dive7 = getelementptr inbounds %"class.v8::IndirectHandleBase", ptr %coerce.dive6, i32 0, i32 0
  store ptr %4, ptr %coerce.dive7, align 8
  %coerce.dive8 = getelementptr inbounds %"class.v8::Local.325", ptr %retval, i32 0, i32 0
  %coerce.dive9 = getelementptr inbounds %"class.v8::LocalBase.326", ptr %coerce.dive8, i32 0, i32 0
  %coerce.dive10 = getelementptr inbounds %"class.v8::IndirectHandleBase", ptr %coerce.dive9, i32 0, i32 0
  %5 = load ptr, ptr %coerce.dive10, align 8
  ret ptr %5
}

; Function Attrs: mustprogress nounwind uwtable
define linkonce_odr dso_local noundef i64 @_ZN4node9arraysizeIN2v85LocalINS1_5ValueEEELm2EEEmRAT0__KT_(ptr noundef nonnull align 8 dereferenceable(16) %0) #4 comdat {
entry:
  %.addr = alloca ptr, align 8
  store ptr %0, ptr %.addr, align 8
  ret i64 2
}

; Function Attrs: mustprogress nounwind uwtable
define linkonce_odr dso_local ptr @_ZN4node21FIXED_ONE_BYTE_STRINGILi15EEEN2v85LocalINS1_6StringEEEPNS1_7IsolateERAT__Kc(ptr noundef %isolate, ptr noundef nonnull align 1 dereferenceable(15) %data) #4 comdat {
entry:
  %retval = alloca %"class.v8::Local.325", align 8
  %isolate.addr = alloca ptr, align 8
  %data.addr = alloca ptr, align 8
  store ptr %isolate, ptr %isolate.addr, align 8
  store ptr %data, ptr %data.addr, align 8
  %0 = load ptr, ptr %isolate.addr, align 8
  %1 = load ptr, ptr %data.addr, align 8
  %arraydecay = getelementptr inbounds [15 x i8], ptr %1, i64 0, i64 0
  %call = call ptr @_ZN4node13OneByteStringEPN2v87IsolateEPKci(ptr noundef %0, ptr noundef %arraydecay, i32 noundef 14)
  %coerce.dive = getelementptr inbounds %"class.v8::Local.325", ptr %retval, i32 0, i32 0
  %coerce.dive1 = getelementptr inbounds %"class.v8::LocalBase.326", ptr %coerce.dive, i32 0, i32 0
  %coerce.dive2 = getelementptr inbounds %"class.v8::IndirectHandleBase", ptr %coerce.dive1, i32 0, i32 0
  store ptr %call, ptr %coerce.dive2, align 8
  %coerce.dive3 = getelementptr inbounds %"class.v8::Local.325", ptr %retval, i32 0, i32 0
  %coerce.dive4 = getelementptr inbounds %"class.v8::LocalBase.326", ptr %coerce.dive3, i32 0, i32 0
  %coerce.dive5 = getelementptr inbounds %"class.v8::IndirectHandleBase", ptr %coerce.dive4, i32 0, i32 0
  %2 = load ptr, ptr %coerce.dive5, align 8
  ret ptr %2
}

; Function Attrs: mustprogress nounwind uwtable
define internal void @_ZN4node6worker12_GLOBAL__N_123ThrowDataCloneExceptionEN2v85LocalINS2_7ContextEEENS3_INS2_6StringEEE(ptr %context.coerce, ptr %message.coerce) #4 {
entry:
  %this.addr.i.i97 = alloca ptr, align 8
  %this.addr.i98 = alloca ptr, align 8
  %this.addr.i94 = alloca ptr, align 8
  %other.addr.i95 = alloca ptr, align 8
  %this.addr.i91 = alloca ptr, align 8
  %other.addr.i92 = alloca ptr, align 8
  %this.addr.i89 = alloca ptr, align 8
  %other.addr.i = alloca ptr, align 8
  %slot.addr.i88 = alloca ptr, align 8
  %this.addr.i.i84 = alloca ptr, align 8
  %this.addr.i85 = alloca ptr, align 8
  %this.addr.i.i79 = alloca ptr, align 8
  %this.addr.i80 = alloca ptr, align 8
  %slot.addr.i = alloca ptr, align 8
  %this.addr.i.i75 = alloca ptr, align 8
  %this.addr.i76 = alloca ptr, align 8
  %this.addr.i.i71 = alloca ptr, align 8
  %this.addr.i72 = alloca ptr, align 8
  %that.i.i = alloca %"class.v8::Local.294", align 8
  %this.addr.i.i65 = alloca ptr, align 8
  %this.addr.i66 = alloca ptr, align 8
  %out.addr.i67 = alloca ptr, align 8
  %ref.tmp.i = alloca %"class.v8::Local.14", align 8
  %agg.tmp.i = alloca %"class.v8::Local.294", align 8
  %this.addr.i.i = alloca ptr, align 8
  %this.addr.i63 = alloca ptr, align 8
  %this.addr.i60 = alloca ptr, align 8
  %that.i57 = alloca %"class.v8::Local.325", align 8
  %this.addr.i58 = alloca ptr, align 8
  %that.i = alloca %"class.v8::Local.325", align 8
  %this.addr.i56 = alloca ptr, align 8
  %this.addr.i53 = alloca ptr, align 8
  %out.addr.i = alloca ptr, align 8
  %this.addr.i51 = alloca ptr, align 8
  %this.addr.i49 = alloca ptr, align 8
  %this.addr.i = alloca ptr, align 8
  %context = alloca %"class.v8::Local", align 8
  %message = alloca %"class.v8::Local.325", align 8
  %isolate = alloca ptr, align 8
  %argv = alloca [2 x %"class.v8::Local.14"], align 16
  %agg.tmp = alloca %"class.v8::Local.325", align 8
  %agg.tmp10 = alloca %"class.v8::Local.325", align 8
  %exception = alloca %"class.v8::Local.14", align 8
  %domexception_ctor = alloca %"class.v8::Local.386", align 8
  %ref.tmp = alloca %"class.v8::MaybeLocal.388", align 8
  %agg.tmp18 = alloca %"class.v8::Local", align 8
  %ref.tmp28 = alloca %"class.v8::MaybeLocal.389", align 8
  %agg.tmp30 = alloca %"class.v8::Local", align 8
  %agg.tmp41 = alloca %"class.v8::Local.14", align 8
  %coerce = alloca %"class.v8::Local.14", align 8
  %coerce.dive = getelementptr inbounds %"class.v8::Local", ptr %context, i32 0, i32 0
  %coerce.dive1 = getelementptr inbounds %"class.v8::LocalBase", ptr %coerce.dive, i32 0, i32 0
  %coerce.dive2 = getelementptr inbounds %"class.v8::IndirectHandleBase", ptr %coerce.dive1, i32 0, i32 0
  store ptr %context.coerce, ptr %coerce.dive2, align 8
  %coerce.dive3 = getelementptr inbounds %"class.v8::Local.325", ptr %message, i32 0, i32 0
  %coerce.dive4 = getelementptr inbounds %"class.v8::LocalBase.326", ptr %coerce.dive3, i32 0, i32 0
  %coerce.dive5 = getelementptr inbounds %"class.v8::IndirectHandleBase", ptr %coerce.dive4, i32 0, i32 0
  store ptr %message.coerce, ptr %coerce.dive5, align 8
  store ptr %context, ptr %this.addr.i60, align 8
  %this1.i61 = load ptr, ptr %this.addr.i60, align 8
  store ptr %this1.i61, ptr %this.addr.i76, align 8
  %this1.i77 = load ptr, ptr %this.addr.i76, align 8
  store ptr %this1.i77, ptr %this.addr.i.i75, align 8
  %this1.i.i78 = load ptr, ptr %this.addr.i.i75, align 8
  %0 = load ptr, ptr %this1.i.i78, align 8
  store ptr %0, ptr %slot.addr.i, align 8
  %1 = load ptr, ptr %slot.addr.i, align 8
  %call6 = call noundef ptr @_ZN2v87Context10GetIsolateEv(ptr noundef nonnull align 1 dereferenceable(1) %1)
  store ptr %call6, ptr %isolate, align 8
  %arrayinit.begin = getelementptr inbounds [2 x %"class.v8::Local.14"], ptr %argv, i64 0, i64 0
  call void @llvm.memcpy.p0.p0.i64(ptr align 8 %agg.tmp, ptr align 8 %message, i64 8, i1 false)
  %coerce.dive7 = getelementptr inbounds %"class.v8::Local.325", ptr %agg.tmp, i32 0, i32 0
  %coerce.dive8 = getelementptr inbounds %"class.v8::LocalBase.326", ptr %coerce.dive7, i32 0, i32 0
  %coerce.dive9 = getelementptr inbounds %"class.v8::IndirectHandleBase", ptr %coerce.dive8, i32 0, i32 0
  %2 = load ptr, ptr %coerce.dive9, align 8
  store ptr %2, ptr %that.i, align 8
  store ptr %arrayinit.begin, ptr %this.addr.i56, align 8
  %this3.i = load ptr, ptr %this.addr.i56, align 8
  store ptr %this3.i, ptr %this.addr.i91, align 8
  store ptr %that.i, ptr %other.addr.i92, align 8
  %this1.i93 = load ptr, ptr %this.addr.i91, align 8
  %3 = load ptr, ptr %other.addr.i92, align 8
  call void @llvm.memcpy.p0.p0.i64(ptr align 8 %this1.i93, ptr align 8 %3, i64 8, i1 false)
  %arrayinit.element = getelementptr inbounds %"class.v8::Local.14", ptr %arrayinit.begin, i64 1
  %4 = load ptr, ptr %isolate, align 8
  %call11 = call ptr @_ZN4node21FIXED_ONE_BYTE_STRINGILi15EEEN2v85LocalINS1_6StringEEEPNS1_7IsolateERAT__Kc(ptr noundef %4, ptr noundef nonnull align 1 dereferenceable(15) @.str.81)
  %coerce.dive12 = getelementptr inbounds %"class.v8::Local.325", ptr %agg.tmp10, i32 0, i32 0
  %coerce.dive13 = getelementptr inbounds %"class.v8::LocalBase.326", ptr %coerce.dive12, i32 0, i32 0
  %coerce.dive14 = getelementptr inbounds %"class.v8::IndirectHandleBase", ptr %coerce.dive13, i32 0, i32 0
  store ptr %call11, ptr %coerce.dive14, align 8
  %coerce.dive15 = getelementptr inbounds %"class.v8::Local.325", ptr %agg.tmp10, i32 0, i32 0
  %coerce.dive16 = getelementptr inbounds %"class.v8::LocalBase.326", ptr %coerce.dive15, i32 0, i32 0
  %coerce.dive17 = getelementptr inbounds %"class.v8::IndirectHandleBase", ptr %coerce.dive16, i32 0, i32 0
  %5 = load ptr, ptr %coerce.dive17, align 8
  store ptr %5, ptr %that.i57, align 8
  store ptr %arrayinit.element, ptr %this.addr.i58, align 8
  %this3.i59 = load ptr, ptr %this.addr.i58, align 8
  store ptr %this3.i59, ptr %this.addr.i89, align 8
  store ptr %that.i57, ptr %other.addr.i, align 8
  %this1.i90 = load ptr, ptr %this.addr.i89, align 8
  %6 = load ptr, ptr %other.addr.i, align 8
  call void @llvm.memcpy.p0.p0.i64(ptr align 8 %this1.i90, ptr align 8 %6, i64 8, i1 false)
  store ptr %exception, ptr %this.addr.i, align 8
  %this1.i = load ptr, ptr %this.addr.i, align 8
  store ptr %this1.i, ptr %this.addr.i63, align 8
  %this1.i64 = load ptr, ptr %this.addr.i63, align 8
  store ptr %this1.i64, ptr %this.addr.i.i, align 8
  %this1.i.i = load ptr, ptr %this.addr.i.i, align 8
  store ptr null, ptr %this1.i.i, align 8
  store ptr %domexception_ctor, ptr %this.addr.i51, align 8
  %this1.i52 = load ptr, ptr %this.addr.i51, align 8
  store ptr %this1.i52, ptr %this.addr.i98, align 8
  %this1.i99 = load ptr, ptr %this.addr.i98, align 8
  store ptr %this1.i99, ptr %this.addr.i.i97, align 8
  %this1.i.i100 = load ptr, ptr %this.addr.i.i97, align 8
  store ptr null, ptr %this1.i.i100, align 8
  call void @llvm.memcpy.p0.p0.i64(ptr align 8 %agg.tmp18, ptr align 8 %context, i64 8, i1 false)
  %coerce.dive19 = getelementptr inbounds %"class.v8::Local", ptr %agg.tmp18, i32 0, i32 0
  %coerce.dive20 = getelementptr inbounds %"class.v8::LocalBase", ptr %coerce.dive19, i32 0, i32 0
  %coerce.dive21 = getelementptr inbounds %"class.v8::IndirectHandleBase", ptr %coerce.dive20, i32 0, i32 0
  %7 = load ptr, ptr %coerce.dive21, align 8
  %call22 = call ptr @_ZN4node6worker12_GLOBAL__N_115GetDOMExceptionEN2v85LocalINS2_7ContextEEE(ptr %7)
  %coerce.dive23 = getelementptr inbounds %"class.v8::MaybeLocal.388", ptr %ref.tmp, i32 0, i32 0
  %coerce.dive24 = getelementptr inbounds %"class.v8::Local.386", ptr %coerce.dive23, i32 0, i32 0
  %coerce.dive25 = getelementptr inbounds %"class.v8::LocalBase.387", ptr %coerce.dive24, i32 0, i32 0
  %coerce.dive26 = getelementptr inbounds %"class.v8::IndirectHandleBase", ptr %coerce.dive25, i32 0, i32 0
  store ptr %call22, ptr %coerce.dive26, align 8
  store ptr %ref.tmp, ptr %this.addr.i53, align 8
  store ptr %domexception_ctor, ptr %out.addr.i, align 8
  %this1.i54 = load ptr, ptr %this.addr.i53, align 8
  %8 = load ptr, ptr %out.addr.i, align 8
  call void @llvm.memcpy.p0.p0.i64(ptr align 8 %8, ptr align 8 %this1.i54, i64 8, i1 false)
  store ptr %this1.i54, ptr %this.addr.i80, align 8
  %this1.i81 = load ptr, ptr %this.addr.i80, align 8
  store ptr %this1.i81, ptr %this.addr.i.i79, align 8
  %this1.i.i82 = load ptr, ptr %this.addr.i.i79, align 8
  %9 = load ptr, ptr %this1.i.i82, align 8
  %cmp.i.i83 = icmp eq ptr %9, null
  %lnot.i = xor i1 %cmp.i.i83, true
  br i1 %lnot.i, label %lor.rhs, label %lor.end

lor.rhs:                                          ; preds = %entry
  store ptr %domexception_ctor, ptr %this.addr.i49, align 8
  %this1.i50 = load ptr, ptr %this.addr.i49, align 8
  store ptr %this1.i50, ptr %this.addr.i85, align 8
  %this1.i86 = load ptr, ptr %this.addr.i85, align 8
  store ptr %this1.i86, ptr %this.addr.i.i84, align 8
  %this1.i.i87 = load ptr, ptr %this.addr.i.i84, align 8
  %10 = load ptr, ptr %this1.i.i87, align 8
  store ptr %10, ptr %slot.addr.i88, align 8
  %11 = load ptr, ptr %slot.addr.i88, align 8
  call void @llvm.memcpy.p0.p0.i64(ptr align 8 %agg.tmp30, ptr align 8 %context, i64 8, i1 false)
  %call31 = call noundef i64 @_ZN4node9arraysizeIN2v85LocalINS1_5ValueEEELm2EEEmRAT0__KT_(ptr noundef nonnull align 8 dereferenceable(16) %argv)
  %conv = trunc i64 %call31 to i32
  %arraydecay = getelementptr inbounds [2 x %"class.v8::Local.14"], ptr %argv, i64 0, i64 0
  %coerce.dive32 = getelementptr inbounds %"class.v8::Local", ptr %agg.tmp30, i32 0, i32 0
  %coerce.dive33 = getelementptr inbounds %"class.v8::LocalBase", ptr %coerce.dive32, i32 0, i32 0
  %coerce.dive34 = getelementptr inbounds %"class.v8::IndirectHandleBase", ptr %coerce.dive33, i32 0, i32 0
  %12 = load ptr, ptr %coerce.dive34, align 8
  %call35 = call ptr @_ZNK2v88Function11NewInstanceENS_5LocalINS_7ContextEEEiPNS1_INS_5ValueEEE(ptr noundef nonnull align 1 dereferenceable(1) %11, ptr %12, i32 noundef %conv, ptr noundef %arraydecay)
  %coerce.dive36 = getelementptr inbounds %"class.v8::MaybeLocal.389", ptr %ref.tmp28, i32 0, i32 0
  %coerce.dive37 = getelementptr inbounds %"class.v8::Local.294", ptr %coerce.dive36, i32 0, i32 0
  %coerce.dive38 = getelementptr inbounds %"class.v8::LocalBase.295", ptr %coerce.dive37, i32 0, i32 0
  %coerce.dive39 = getelementptr inbounds %"class.v8::IndirectHandleBase", ptr %coerce.dive38, i32 0, i32 0
  store ptr %call35, ptr %coerce.dive39, align 8
  store ptr %ref.tmp28, ptr %this.addr.i66, align 8
  store ptr %exception, ptr %out.addr.i67, align 8
  %this1.i68 = load ptr, ptr %this.addr.i66, align 8
  call void @llvm.memcpy.p0.p0.i64(ptr align 8 %agg.tmp.i, ptr align 8 %this1.i68, i64 8, i1 false)
  %13 = load ptr, ptr %agg.tmp.i, align 8
  store ptr %13, ptr %that.i.i, align 8
  store ptr %ref.tmp.i, ptr %this.addr.i.i65, align 8
  %this3.i.i = load ptr, ptr %this.addr.i.i65, align 8
  store ptr %this3.i.i, ptr %this.addr.i94, align 8
  store ptr %that.i.i, ptr %other.addr.i95, align 8
  %this1.i96 = load ptr, ptr %this.addr.i94, align 8
  %14 = load ptr, ptr %other.addr.i95, align 8
  call void @llvm.memcpy.p0.p0.i64(ptr align 8 %this1.i96, ptr align 8 %14, i64 8, i1 false)
  %15 = load ptr, ptr %out.addr.i67, align 8
  call void @llvm.memcpy.p0.p0.i64(ptr align 8 %15, ptr align 8 %ref.tmp.i, i64 8, i1 false)
  store ptr %this1.i68, ptr %this.addr.i72, align 8
  %this1.i73 = load ptr, ptr %this.addr.i72, align 8
  store ptr %this1.i73, ptr %this.addr.i.i71, align 8
  %this1.i.i74 = load ptr, ptr %this.addr.i.i71, align 8
  %16 = load ptr, ptr %this1.i.i74, align 8
  %cmp.i.i = icmp eq ptr %16, null
  %lnot.i70 = xor i1 %cmp.i.i, true
  %lnot = xor i1 %lnot.i70, true
  br label %lor.end

lor.end:                                          ; preds = %lor.rhs, %entry
  %17 = phi i1 [ true, %entry ], [ %lnot, %lor.rhs ]
  br i1 %17, label %if.then, label %if.end

if.then:                                          ; preds = %lor.end
  br label %return

if.end:                                           ; preds = %lor.end
  %18 = load ptr, ptr %isolate, align 8
  call void @llvm.memcpy.p0.p0.i64(ptr align 8 %agg.tmp41, ptr align 8 %exception, i64 8, i1 false)
  %coerce.dive42 = getelementptr inbounds %"class.v8::Local.14", ptr %agg.tmp41, i32 0, i32 0
  %coerce.dive43 = getelementptr inbounds %"class.v8::LocalBase.15", ptr %coerce.dive42, i32 0, i32 0
  %coerce.dive44 = getelementptr inbounds %"class.v8::IndirectHandleBase", ptr %coerce.dive43, i32 0, i32 0
  %19 = load ptr, ptr %coerce.dive44, align 8
  %call45 = call ptr @_ZN2v87Isolate14ThrowExceptionENS_5LocalINS_5ValueEEE(ptr noundef nonnull align 1 dereferenceable(1) %18, ptr %19)
  %coerce.dive46 = getelementptr inbounds %"class.v8::Local.14", ptr %coerce, i32 0, i32 0
  %coerce.dive47 = getelementptr inbounds %"class.v8::LocalBase.15", ptr %coerce.dive46, i32 0, i32 0
  %coerce.dive48 = getelementptr inbounds %"class.v8::IndirectHandleBase", ptr %coerce.dive47, i32 0, i32 0
  store ptr %call45, ptr %coerce.dive48, align 8
  br label %return

return:                                           ; preds = %if.end, %if.then
  ret void
}

; Function Attrs: mustprogress nounwind uwtable
define internal void @_ZN4node6worker12_GLOBAL__N_118SerializerDelegate19ThrowDataCloneErrorEN2v85LocalINS3_6StringEEE(ptr noundef nonnull align 8 dereferenceable(96) %this, ptr %message.coerce) unnamed_addr #4 align 2 {
entry:
  %message = alloca %"class.v8::Local.325", align 8
  %this.addr = alloca ptr, align 8
  %agg.tmp = alloca %"class.v8::Local", align 8
  %agg.tmp4 = alloca %"class.v8::Local.325", align 8
  %coerce.dive = getelementptr inbounds %"class.v8::Local.325", ptr %message, i32 0, i32 0
  %coerce.dive1 = getelementptr inbounds %"class.v8::LocalBase.326", ptr %coerce.dive, i32 0, i32 0
  %coerce.dive2 = getelementptr inbounds %"class.v8::IndirectHandleBase", ptr %coerce.dive1, i32 0, i32 0
  store ptr %message.coerce, ptr %coerce.dive2, align 8
  store ptr %this, ptr %this.addr, align 8
  %this3 = load ptr, ptr %this.addr, align 8
  %context_ = getelementptr inbounds %"class.node::worker::(anonymous namespace)::SerializerDelegate", ptr %this3, i32 0, i32 3
  call void @llvm.memcpy.p0.p0.i64(ptr align 8 %agg.tmp, ptr align 8 %context_, i64 8, i1 false)
  call void @llvm.memcpy.p0.p0.i64(ptr align 8 %agg.tmp4, ptr align 8 %message, i64 8, i1 false)
  %coerce.dive5 = getelementptr inbounds %"class.v8::Local", ptr %agg.tmp, i32 0, i32 0
  %coerce.dive6 = getelementptr inbounds %"class.v8::LocalBase", ptr %coerce.dive5, i32 0, i32 0
  %coerce.dive7 = getelementptr inbounds %"class.v8::IndirectHandleBase", ptr %coerce.dive6, i32 0, i32 0
  %0 = load ptr, ptr %coerce.dive7, align 8
  %coerce.dive8 = getelementptr inbounds %"class.v8::Local.325", ptr %agg.tmp4, i32 0, i32 0
  %coerce.dive9 = getelementptr inbounds %"class.v8::LocalBase.326", ptr %coerce.dive8, i32 0, i32 0
  %coerce.dive10 = getelementptr inbounds %"class.v8::IndirectHandleBase", ptr %coerce.dive9, i32 0, i32 0
  %1 = load ptr, ptr %coerce.dive10, align 8
  call void @_ZN4node6worker12_GLOBAL__N_123ThrowDataCloneExceptionEN2v85LocalINS2_7ContextEEENS3_INS2_6StringEEE(ptr %0, ptr %1)
  ret void
}