; Function Attrs: mustprogress nounwind uwtable
define internal void @_ZN4node6worker12_GLOBAL__N_118SerializerDelegate19ThrowDataCloneErrorEN2v85LocalINS3_6StringEEE(ptr nocapture noundef nonnull readonly align 8 dereferenceable(96) %this, ptr %message.coerce) unnamed_addr #6 align 2 {
entry:
  %argv.i = alloca [2 x %"class.v8::Local.14"], align 16
  %context_ = getelementptr inbounds i8, ptr %this, i64 24
  %agg.tmp.sroa.0.0.copyload = load ptr, ptr %context_, align 8
  call void @llvm.lifetime.start.p0(i64 16, ptr nonnull %argv.i)
  %call6.i = tail call noundef ptr @_ZN2v87Context10GetIsolateEv(ptr noundef nonnull align 1 dereferenceable(1) %agg.tmp.sroa.0.0.copyload) #26
  store ptr %message.coerce, ptr %argv.i, align 16
  %arrayinit.element.i = getelementptr inbounds i8, ptr %argv.i, i64 8
  %call.i.i.i = tail call ptr @_ZN2v86String14NewFromOneByteEPNS_7IsolateEPKhNS_13NewStringTypeEi(ptr noundef %call6.i, ptr noundef nonnull @.str.81, i32 noundef 0, i32 noundef 14) #26
  %cmp.i.i.i.i.i = icmp eq ptr %call.i.i.i, null
  br i1 %cmp.i.i.i.i.i, label %if.then.i.i.i.i, label %_ZN4node21FIXED_ONE_BYTE_STRINGILi15EEEN2v85LocalINS1_6StringEEEPNS1_7IsolateERAT__Kc.exit.i

if.then.i.i.i.i:                                  ; preds = %entry
  tail call void @_ZN2v812api_internal12ToLocalEmptyEv() #26
  br label %_ZN4node21FIXED_ONE_BYTE_STRINGILi15EEEN2v85LocalINS1_6StringEEEPNS1_7IsolateERAT__Kc.exit.i

_ZN4node21FIXED_ONE_BYTE_STRINGILi15EEEN2v85LocalINS1_6StringEEEPNS1_7IsolateERAT__Kc.exit.i: ; preds = %if.then.i.i.i.i, %entry
  store ptr %call.i.i.i, ptr %arrayinit.element.i, align 8
  %call22.i = tail call fastcc ptr @_ZN4node6worker12_GLOBAL__N_115GetDOMExceptionEN2v85LocalINS2_7ContextEEE(ptr nonnull %agg.tmp.sroa.0.0.copyload)
  %cmp.i.i83.not.i = icmp eq ptr %call22.i, null
  br i1 %cmp.i.i83.not.i, label %_ZN4node6worker12_GLOBAL__N_123ThrowDataCloneExceptionEN2v85LocalINS2_7ContextEEENS3_INS2_6StringEEE.exit, label %lor.rhs.i

lor.rhs.i:                                        ; preds = %_ZN4node21FIXED_ONE_BYTE_STRINGILi15EEEN2v85LocalINS1_6StringEEEPNS1_7IsolateERAT__Kc.exit.i
  %call35.i = call ptr @_ZNK2v88Function11NewInstanceENS_5LocalINS_7ContextEEEiPNS1_INS_5ValueEEE(ptr noundef nonnull align 1 dereferenceable(1) %call22.i, ptr nonnull %agg.tmp.sroa.0.0.copyload, i32 noundef 2, ptr noundef nonnull %argv.i) #26
  %cmp.i.i.i = icmp eq ptr %call35.i, null
  br i1 %cmp.i.i.i, label %_ZN4node6worker12_GLOBAL__N_123ThrowDataCloneExceptionEN2v85LocalINS2_7ContextEEENS3_INS2_6StringEEE.exit, label %if.end.i

if.end.i:                                         ; preds = %lor.rhs.i
  %call45.i = call ptr @_ZN2v87Isolate14ThrowExceptionENS_5LocalINS_5ValueEEE(ptr noundef nonnull align 1 dereferenceable(1) %call6.i, ptr nonnull %call35.i) #26
  br label %_ZN4node6worker12_GLOBAL__N_123ThrowDataCloneExceptionEN2v85LocalINS2_7ContextEEENS3_INS2_6StringEEE.exit

_ZN4node6worker12_GLOBAL__N_123ThrowDataCloneExceptionEN2v85LocalINS2_7ContextEEENS3_INS2_6StringEEE.exit: ; preds = %_ZN4node21FIXED_ONE_BYTE_STRINGILi15EEEN2v85LocalINS1_6StringEEEPNS1_7IsolateERAT__Kc.exit.i, %lor.rhs.i, %if.end.i
  call void @llvm.lifetime.end.p0(i64 16, ptr nonnull %argv.i)
  ret void
}